; ModuleID = '46/2850.c'
source_filename = "46/2850.c"
target datalayout = "e-m:e-p270:32:32-p271:32:32-p272:64:64-i64:64-f80:128-n8:16:32:64-S128"
target triple = "x86_64-pc-linux-gnu"

@.str = private unnamed_addr constant [5 x i8] c"%d%d\00", align 1
@.str.1 = private unnamed_addr constant [3 x i8] c"%d\00", align 1
@.str.2 = private unnamed_addr constant [4 x i8] c"%d\0A\00", align 1

; Function Attrs: noinline nounwind uwtable
define dso_local i32 @main() #0 {
  %1 = alloca i32, align 4
  %2 = alloca i32, align 4
  %3 = alloca i32, align 4
  %4 = alloca i32, align 4
  %5 = alloca i32, align 4
  %6 = alloca [101 x [101 x i32]], align 16
  %7 = alloca i32, align 4
  %8 = alloca i32, align 4
  store i32 0, i32* %1, align 4
  store i32 0, i32* %7, align 4
  %9 = call i32 (i8*, ...) @__isoc99_scanf(i8* getelementptr inbounds ([5 x i8], [5 x i8]* @.str, i64 0, i64 0), i32* %2, i32* %3)
  store i32 0, i32* %4, align 4
  br label %10

10:                                               ; preds = %31, %0
  %11 = load i32, i32* %4, align 4
  %12 = load i32, i32* %2, align 4
  %13 = icmp slt i32 %11, %12
  br i1 %13, label %14, label %34

14:                                               ; preds = %10
  store i32 0, i32* %5, align 4
  br label %15

15:                                               ; preds = %27, %14
  %16 = load i32, i32* %5, align 4
  %17 = load i32, i32* %3, align 4
  %18 = icmp slt i32 %16, %17
  br i1 %18, label %19, label %30

19:                                               ; preds = %15
  %20 = load i32, i32* %4, align 4
  %21 = sext i32 %20 to i64
  %22 = getelementptr inbounds [101 x [101 x i32]], [101 x [101 x i32]]* %6, i64 0, i64 %21
  %23 = load i32, i32* %5, align 4
  %24 = sext i32 %23 to i64
  %25 = getelementptr inbounds [101 x i32], [101 x i32]* %22, i64 0, i64 %24
  %26 = call i32 (i8*, ...) @__isoc99_scanf(i8* getelementptr inbounds ([3 x i8], [3 x i8]* @.str.1, i64 0, i64 0), i32* %25)
  br label %27

27:                                               ; preds = %19
  %28 = load i32, i32* %5, align 4
  %29 = add nsw i32 %28, 1
  store i32 %29, i32* %5, align 4
  br label %15

30:                                               ; preds = %15
  br label %31

31:                                               ; preds = %30
  %32 = load i32, i32* %4, align 4
  %33 = add nsw i32 %32, 1
  store i32 %33, i32* %4, align 4
  br label %10

34:                                               ; preds = %10
  %35 = load i32, i32* %2, align 4
  %36 = load i32, i32* %3, align 4
  %37 = add nsw i32 %35, %36
  %38 = sub nsw i32 %37, 1
  store i32 %38, i32* %8, align 4
  store i32 1, i32* %4, align 4
  br label %39

39:                                               ; preds = %169, %34
  %40 = load i32, i32* %4, align 4
  %41 = load i32, i32* %8, align 4
  %42 = icmp sle i32 %40, %41
  br i1 %42, label %43, label %172

43:                                               ; preds = %39
  %44 = load i32, i32* %7, align 4
  %45 = load i32, i32* %2, align 4
  %46 = load i32, i32* %3, align 4
  %47 = mul nsw i32 %45, %46
  %48 = icmp eq i32 %44, %47
  br i1 %48, label %49, label %50

49:                                               ; preds = %43
  br label %172

50:                                               ; preds = %43
  %51 = load i32, i32* %4, align 4
  %52 = srem i32 %51, 4
  switch i32 %52, label %167 [
    i32 1, label %53
    i32 2, label %79
    i32 3, label %109
    i32 0, label %139
  ]

53:                                               ; preds = %50
  %54 = load i32, i32* %4, align 4
  %55 = sdiv i32 %54, 4
  store i32 %55, i32* %5, align 4
  br label %56

56:                                               ; preds = %75, %53
  %57 = load i32, i32* %5, align 4
  %58 = load i32, i32* %3, align 4
  %59 = load i32, i32* %4, align 4
  %60 = sdiv i32 %59, 4
  %61 = sub nsw i32 %58, %60
  %62 = icmp slt i32 %57, %61
  br i1 %62, label %63, label %78

63:                                               ; preds = %56
  %64 = load i32, i32* %4, align 4
  %65 = sdiv i32 %64, 4
  %66 = sext i32 %65 to i64
  %67 = getelementptr inbounds [101 x [101 x i32]], [101 x [101 x i32]]* %6, i64 0, i64 %66
  %68 = load i32, i32* %5, align 4
  %69 = sext i32 %68 to i64
  %70 = getelementptr inbounds [101 x i32], [101 x i32]* %67, i64 0, i64 %69
  %71 = load i32, i32* %70, align 4
  %72 = call i32 (i8*, ...) @printf(i8* getelementptr inbounds ([4 x i8], [4 x i8]* @.str.2, i64 0, i64 0), i32 %71)
  %73 = load i32, i32* %7, align 4
  %74 = add nsw i32 %73, 1
  store i32 %74, i32* %7, align 4
  br label %75

75:                                               ; preds = %63
  %76 = load i32, i32* %5, align 4
  %77 = add nsw i32 %76, 1
  store i32 %77, i32* %5, align 4
  br label %56

78:                                               ; preds = %56
  br label %167

79:                                               ; preds = %50
  %80 = load i32, i32* %4, align 4
  %81 = sdiv i32 %80, 4
  %82 = add nsw i32 %81, 1
  store i32 %82, i32* %5, align 4
  br label %83

83:                                               ; preds = %105, %79
  %84 = load i32, i32* %5, align 4
  %85 = load i32, i32* %2, align 4
  %86 = load i32, i32* %4, align 4
  %87 = sdiv i32 %86, 4
  %88 = sub nsw i32 %85, %87
  %89 = icmp slt i32 %84, %88
  br i1 %89, label %90, label %108

90:                                               ; preds = %83
  %91 = load i32, i32* %5, align 4
  %92 = sext i32 %91 to i64
  %93 = getelementptr inbounds [101 x [101 x i32]], [101 x [101 x i32]]* %6, i64 0, i64 %92
  %94 = load i32, i32* %3, align 4
  %95 = load i32, i32* %4, align 4
  %96 = sdiv i32 %95, 4
  %97 = sub nsw i32 %94, %96
  %98 = sub nsw i32 %97, 1
  %99 = sext i32 %98 to i64
  %100 = getelementptr inbounds [101 x i32], [101 x i32]* %93, i64 0, i64 %99
  %101 = load i32, i32* %100, align 4
  %102 = call i32 (i8*, ...) @printf(i8* getelementptr inbounds ([4 x i8], [4 x i8]* @.str.2, i64 0, i64 0), i32 %101)
  %103 = load i32, i32* %7, align 4
  %104 = add nsw i32 %103, 1
  store i32 %104, i32* %7, align 4
  br label %105

105:                                              ; preds = %90
  %106 = load i32, i32* %5, align 4
  %107 = add nsw i32 %106, 1
  store i32 %107, i32* %5, align 4
  br label %83

108:                                              ; preds = %83
  br label %167

109:                                              ; preds = %50
  %110 = load i32, i32* %3, align 4
  %111 = sub nsw i32 %110, 2
  %112 = load i32, i32* %4, align 4
  %113 = sdiv i32 %112, 4
  %114 = sub nsw i32 %111, %113
  store i32 %114, i32* %5, align 4
  br label %115

115:                                              ; preds = %135, %109
  %116 = load i32, i32* %5, align 4
  %117 = load i32, i32* %4, align 4
  %118 = sdiv i32 %117, 4
  %119 = icmp sge i32 %116, %118
  br i1 %119, label %120, label %138

120:                                              ; preds = %115
  %121 = load i32, i32* %2, align 4
  %122 = sub nsw i32 %121, 1
  %123 = load i32, i32* %4, align 4
  %124 = sdiv i32 %123, 4
  %125 = sub nsw i32 %122, %124
  %126 = sext i32 %125 to i64
  %127 = getelementptr inbounds [101 x [101 x i32]], [101 x [101 x i32]]* %6, i64 0, i64 %126
  %128 = load i32, i32* %5, align 4
  %129 = sext i32 %128 to i64
  %130 = getelementptr inbounds [101 x i32], [101 x i32]* %127, i64 0, i64 %129
  %131 = load i32, i32* %130, align 4
  %132 = call i32 (i8*, ...) @printf(i8* getelementptr inbounds ([4 x i8], [4 x i8]* @.str.2, i64 0, i64 0), i32 %131)
  %133 = load i32, i32* %7, align 4
  %134 = add nsw i32 %133, 1
  store i32 %134, i32* %7, align 4
  br label %135

135:                                              ; preds = %120
  %136 = load i32, i32* %5, align 4
  %137 = add nsw i32 %136, -1
  store i32 %137, i32* %5, align 4
  br label %115

138:                                              ; preds = %115
  br label %167

139:                                              ; preds = %50
  %140 = load i32, i32* %2, align 4
  %141 = sub nsw i32 %140, 1
  %142 = load i32, i32* %4, align 4
  %143 = sdiv i32 %142, 4
  %144 = sub nsw i32 %141, %143
  store i32 %144, i32* %5, align 4
  br label %145

145:                                              ; preds = %163, %139
  %146 = load i32, i32* %5, align 4
  %147 = load i32, i32* %4, align 4
  %148 = sdiv i32 %147, 4
  %149 = icmp sge i32 %146, %148
  br i1 %149, label %150, label %166

150:                                              ; preds = %145
  %151 = load i32, i32* %5, align 4
  %152 = sext i32 %151 to i64
  %153 = getelementptr inbounds [101 x [101 x i32]], [101 x [101 x i32]]* %6, i64 0, i64 %152
  %154 = load i32, i32* %4, align 4
  %155 = sdiv i32 %154, 4
  %156 = sub nsw i32 %155, 1
  %157 = sext i32 %156 to i64
  %158 = getelementptr inbounds [101 x i32], [101 x i32]* %153, i64 0, i64 %157
  %159 = load i32, i32* %158, align 4
  %160 = call i32 (i8*, ...) @printf(i8* getelementptr inbounds ([4 x i8], [4 x i8]* @.str.2, i64 0, i64 0), i32 %159)
  %161 = load i32, i32* %7, align 4
  %162 = add nsw i32 %161, 1
  store i32 %162, i32* %7, align 4
  br label %163

163:                                              ; preds = %150
  %164 = load i32, i32* %5, align 4
  %165 = add nsw i32 %164, -1
  store i32 %165, i32* %5, align 4
  br label %145

166:                                              ; preds = %145
  br label %167

167:                                              ; preds = %50, %166, %138, %108, %78
  br label %168

168:                                              ; preds = %167
  br label %169

169:                                              ; preds = %168
  %170 = load i32, i32* %4, align 4
  %171 = add nsw i32 %170, 1
  store i32 %171, i32* %4, align 4
  br label %39

172:                                              ; preds = %49, %39
  ret i32 0
}

declare dso_local i32 @__isoc99_scanf(i8*, ...) #1

declare dso_local i32 @printf(i8*, ...) #1


!llvm.module.flags = !{!0}
!llvm.ident = !{!1}

!0 = !{i32 1, !"wchar_size", i32 4}
!1 = !{!"clang version 10.0.0-4ubuntu1 "}
